target datalayout = "e-m:e-p270:32:32-p271:32:32-p272:64:64-i64:64-i128:128-f80:128-n8:16:32:64-S128"
target triple = "x86_64-pc-linux-gnu"

%"class.ncnn::Deconvolution3D" = type { %"class.ncnn::Layer", i32, i32, i32, i32, i32, i32, i32, i32, i32, i32, i32, i32, i32, i32, i32, i32, i32, i32, i32, i32, i32, i32, i32, i32, i32, %"class.ncnn::Mat", %"class.ncnn::Mat", %"class.ncnn::Mat" }
%"class.ncnn::Layer" = type { ptr, i8, i8, i8, i8, i8, i8, i8, i8, i8, i8, i8, i8, i8, i8, i8, i8, i8, i8, i8, i8, i32, ptr, i32, %"class.std::__cxx11::basic_string", %"class.std::__cxx11::basic_string", %"class.std::vector", %"class.std::vector", %"class.std::vector.3", %"class.std::vector.3" }
%"class.std::__cxx11::basic_string" = type { %"struct.std::__cxx11::basic_string<char>::_Alloc_hider", i64, %union.anon }
%"struct.std::__cxx11::basic_string<char>::_Alloc_hider" = type { ptr }
%union.anon = type { i64, [8 x i8] }
%"class.std::vector" = type { %"struct.std::_Vector_base" }
%"struct.std::_Vector_base" = type { %"struct.std::_Vector_base<int, std::allocator<int>>::_Vector_impl" }
%"struct.std::_Vector_base<int, std::allocator<int>>::_Vector_impl" = type { %"struct.std::_Vector_base<int, std::allocator<int>>::_Vector_impl_data" }
%"struct.std::_Vector_base<int, std::allocator<int>>::_Vector_impl_data" = type { ptr, ptr, ptr }
%"class.std::vector.3" = type { %"struct.std::_Vector_base.4" }
%"struct.std::_Vector_base.4" = type { %"struct.std::_Vector_base<ncnn::Mat, std::allocator<ncnn::Mat>>::_Vector_impl" }
%"struct.std::_Vector_base<ncnn::Mat, std::allocator<ncnn::Mat>>::_Vector_impl" = type { %"struct.std::_Vector_base<ncnn::Mat, std::allocator<ncnn::Mat>>::_Vector_impl_data" }
%"struct.std::_Vector_base<ncnn::Mat, std::allocator<ncnn::Mat>>::_Vector_impl_data" = type { ptr, ptr, ptr }
%"class.ncnn::Mat" = type { ptr, ptr, i64, i32, ptr, i32, i32, i32, i32, i32, i64 }

; Function Attrs: alwaysinline mustprogress nounwind uwtable
define internal void @_ZN4ncnnL8fastFreeEPv(ptr noundef %0) #3 {
  %2 = alloca ptr, align 8
  store ptr %0, ptr %2, align 8, !tbaa !81
  %3 = load ptr, ptr %2, align 8, !tbaa !81
  %4 = icmp ne ptr %3, null
  br i1 %4, label %5, label %7

5:                                                ; preds = %1
  %6 = load ptr, ptr %2, align 8, !tbaa !81
  call void @free(ptr noundef %6) #10
  br label %7

7:                                                ; preds = %5, %1
  ret void
}

; Function Attrs: noinline noreturn nounwind uwtable
define linkonce_odr hidden void @__clang_call_terminate(ptr noundef %0) #6 comdat {
  %2 = call ptr @__cxa_begin_catch(ptr %0) #10
  call void @_ZSt9terminatev() #18
  unreachable
}

; Function Attrs: alwaysinline mustprogress uwtable
define linkonce_odr hidden void @_ZN4ncnn3Mat7releaseEv(ptr noundef nonnull align 8 dereferenceable(72) %0) #5 comdat align 2 {
  %2 = alloca ptr, align 8
  %3 = alloca i32, align 4
  %4 = alloca i32, align 4
  store ptr %0, ptr %2, align 8, !tbaa !60
  %5 = load ptr, ptr %2, align 8
  %6 = getelementptr inbounds nuw %"class.ncnn::Mat", ptr %5, i32 0, i32 1
  %7 = load ptr, ptr %6, align 8, !tbaa !75
  %8 = icmp ne ptr %7, null
  br i1 %8, label %9, label %32

9:                                                ; preds = %1
  %10 = getelementptr inbounds nuw %"class.ncnn::Mat", ptr %5, i32 0, i32 1
  %11 = load ptr, ptr %10, align 8, !tbaa !75
  store i32 -1, ptr %3, align 4, !tbaa !64
  %12 = load i32, ptr %3, align 4
  %13 = atomicrmw add ptr %11, i32 %12 acq_rel, align 4
  store i32 %13, ptr %4, align 4
  %14 = load i32, ptr %4, align 4, !tbaa !64
  %15 = icmp eq i32 %14, 1
  br i1 %15, label %16, label %32

16:                                               ; preds = %9
  %17 = getelementptr inbounds nuw %"class.ncnn::Mat", ptr %5, i32 0, i32 4
  %18 = load ptr, ptr %17, align 8, !tbaa !77
  %19 = icmp ne ptr %18, null
  br i1 %19, label %20, label %28

20:                                               ; preds = %16
  %21 = getelementptr inbounds nuw %"class.ncnn::Mat", ptr %5, i32 0, i32 4
  %22 = load ptr, ptr %21, align 8, !tbaa !77
  %23 = getelementptr inbounds nuw %"class.ncnn::Mat", ptr %5, i32 0, i32 0
  %24 = load ptr, ptr %23, align 8, !tbaa !74
  %25 = load ptr, ptr %22, align 8, !tbaa !9
  %26 = getelementptr inbounds ptr, ptr %25, i64 3
  %27 = load ptr, ptr %26, align 8
  call void %27(ptr noundef nonnull align 8 dereferenceable(8) %22, ptr noundef %24)
  br label %31

28:                                               ; preds = %16
  %29 = getelementptr inbounds nuw %"class.ncnn::Mat", ptr %5, i32 0, i32 0
  %30 = load ptr, ptr %29, align 8, !tbaa !74
  call void @_ZN4ncnnL8fastFreeEPv(ptr noundef %30)
  br label %31

31:                                               ; preds = %28, %20
  br label %32

32:                                               ; preds = %31, %9, %1
  %33 = getelementptr inbounds nuw %"class.ncnn::Mat", ptr %5, i32 0, i32 0
  store ptr null, ptr %33, align 8, !tbaa !74
  %34 = getelementptr inbounds nuw %"class.ncnn::Mat", ptr %5, i32 0, i32 2
  store i64 0, ptr %34, align 8, !tbaa !67
  %35 = getelementptr inbounds nuw %"class.ncnn::Mat", ptr %5, i32 0, i32 3
  store i32 0, ptr %35, align 8, !tbaa !76
  %36 = getelementptr inbounds nuw %"class.ncnn::Mat", ptr %5, i32 0, i32 5
  store i32 0, ptr %36, align 8, !tbaa !78
  %37 = getelementptr inbounds nuw %"class.ncnn::Mat", ptr %5, i32 0, i32 6
  store i32 0, ptr %37, align 4, !tbaa !63
  %38 = getelementptr inbounds nuw %"class.ncnn::Mat", ptr %5, i32 0, i32 7
  store i32 0, ptr %38, align 8, !tbaa !65
  %39 = getelementptr inbounds nuw %"class.ncnn::Mat", ptr %5, i32 0, i32 8
  store i32 0, ptr %39, align 4, !tbaa !66
  %40 = getelementptr inbounds nuw %"class.ncnn::Mat", ptr %5, i32 0, i32 9
  store i32 0, ptr %40, align 8, !tbaa !79
  %41 = getelementptr inbounds nuw %"class.ncnn::Mat", ptr %5, i32 0, i32 10
  store i64 0, ptr %41, align 8, !tbaa !80
  %42 = getelementptr inbounds nuw %"class.ncnn::Mat", ptr %5, i32 0, i32 1
  store ptr null, ptr %42, align 8, !tbaa !75
  ret void
}

; Function Attrs: alwaysinline mustprogress nounwind uwtable
define linkonce_odr hidden void @_ZN4ncnn3MatD2Ev(ptr noundef nonnull align 8 dereferenceable(72) %0) unnamed_addr #3 comdat align 2 personality ptr @__gxx_personality_v0 {
  %2 = alloca ptr, align 8
  store ptr %0, ptr %2, align 8, !tbaa !60
  %3 = load ptr, ptr %2, align 8
  invoke void @_ZN4ncnn3Mat7releaseEv(ptr noundef nonnull align 8 dereferenceable(72) %3)
          to label %4 unwind label %5

4:                                                ; preds = %1
  ret void

5:                                                ; preds = %1
  %6 = landingpad { ptr, i32 }
          catch ptr null
  %7 = extractvalue { ptr, i32 } %6, 0
  call void @__clang_call_terminate(ptr %7) #18
  unreachable
}

; Function Attrs: alwaysinline mustprogress nounwind uwtable
define linkonce_odr hidden void @_ZN4ncnn3MatC2Ev(ptr noundef nonnull align 8 dereferenceable(72) %0) unnamed_addr #3 comdat align 2 {
  %2 = alloca ptr, align 8
  store ptr %0, ptr %2, align 8, !tbaa !60
  %3 = load ptr, ptr %2, align 8
  %4 = getelementptr inbounds nuw %"class.ncnn::Mat", ptr %3, i32 0, i32 0
  store ptr null, ptr %4, align 8, !tbaa !74
  %5 = getelementptr inbounds nuw %"class.ncnn::Mat", ptr %3, i32 0, i32 1
  store ptr null, ptr %5, align 8, !tbaa !75
  %6 = getelementptr inbounds nuw %"class.ncnn::Mat", ptr %3, i32 0, i32 2
  store i64 0, ptr %6, align 8, !tbaa !67
  %7 = getelementptr inbounds nuw %"class.ncnn::Mat", ptr %3, i32 0, i32 3
  store i32 0, ptr %7, align 8, !tbaa !76
  %8 = getelementptr inbounds nuw %"class.ncnn::Mat", ptr %3, i32 0, i32 4
  store ptr null, ptr %8, align 8, !tbaa !77
  %9 = getelementptr inbounds nuw %"class.ncnn::Mat", ptr %3, i32 0, i32 5
  store i32 0, ptr %9, align 8, !tbaa !78
  %10 = getelementptr inbounds nuw %"class.ncnn::Mat", ptr %3, i32 0, i32 6
  store i32 0, ptr %10, align 4, !tbaa !63
  %11 = getelementptr inbounds nuw %"class.ncnn::Mat", ptr %3, i32 0, i32 7
  store i32 0, ptr %11, align 8, !tbaa !65
  %12 = getelementptr inbounds nuw %"class.ncnn::Mat", ptr %3, i32 0, i32 8
  store i32 0, ptr %12, align 4, !tbaa !66
  %13 = getelementptr inbounds nuw %"class.ncnn::Mat", ptr %3, i32 0, i32 9
  store i32 0, ptr %13, align 8, !tbaa !79
  %14 = getelementptr inbounds nuw %"class.ncnn::Mat", ptr %3, i32 0, i32 10
  store i64 0, ptr %14, align 8, !tbaa !80
  ret void
}

; Function Attrs: mustprogress uwtable
define hidden void @_ZN4ncnn15Deconvolution3DC2Ev(ptr noundef nonnull align 8 dereferenceable(528) %0) unnamed_addr #1 align 2 personality ptr @__gxx_personality_v0 {
  %2 = alloca ptr, align 8
  %3 = alloca ptr, align 8
  %4 = alloca i32, align 4
  store ptr %0, ptr %2, align 8, !tbaa !4
  %5 = load ptr, ptr %2, align 8
  call void @_ZN4ncnn5LayerC2Ev(ptr noundef nonnull align 8 dereferenceable(208) %5)
  store ptr getelementptr inbounds inrange(-16, 80) ({ [12 x ptr] }, ptr @_ZTVN4ncnn15Deconvolution3DE, i32 0, i32 0, i32 2), ptr %5, align 8, !tbaa !9
  %6 = getelementptr inbounds nuw %"class.ncnn::Deconvolution3D", ptr %5, i32 0, i32 26
  invoke void @_ZN4ncnn3MatC2Ev(ptr noundef nonnull align 8 dereferenceable(72) %6)
          to label %7 unwind label %14

7:                                                ; preds = %1
  %8 = getelementptr inbounds nuw %"class.ncnn::Deconvolution3D", ptr %5, i32 0, i32 27
  invoke void @_ZN4ncnn3MatC2Ev(ptr noundef nonnull align 8 dereferenceable(72) %8)
          to label %9 unwind label %18

9:                                                ; preds = %7
  %10 = getelementptr inbounds nuw %"class.ncnn::Deconvolution3D", ptr %5, i32 0, i32 28
  invoke void @_ZN4ncnn3MatC2Ev(ptr noundef nonnull align 8 dereferenceable(72) %10)
          to label %11 unwind label %22

11:                                               ; preds = %9
  %12 = getelementptr inbounds nuw %"class.ncnn::Layer", ptr %5, i32 0, i32 1
  store i8 1, ptr %12, align 8, !tbaa !72
  %13 = getelementptr inbounds nuw %"class.ncnn::Layer", ptr %5, i32 0, i32 2
  store i8 0, ptr %13, align 1, !tbaa !73
  ret void

14:                                               ; preds = %1
  %15 = landingpad { ptr, i32 }
          cleanup
  %16 = extractvalue { ptr, i32 } %15, 0
  store ptr %16, ptr %3, align 8
  %17 = extractvalue { ptr, i32 } %15, 1
  store i32 %17, ptr %4, align 4
  br label %27

18:                                               ; preds = %7
  %19 = landingpad { ptr, i32 }
          cleanup
  %20 = extractvalue { ptr, i32 } %19, 0
  store ptr %20, ptr %3, align 8
  %21 = extractvalue { ptr, i32 } %19, 1
  store i32 %21, ptr %4, align 4
  br label %26

22:                                               ; preds = %9
  %23 = landingpad { ptr, i32 }
          cleanup
  %24 = extractvalue { ptr, i32 } %23, 0
  store ptr %24, ptr %3, align 8
  %25 = extractvalue { ptr, i32 } %23, 1
  store i32 %25, ptr %4, align 4
  call void @_ZN4ncnn3MatD2Ev(ptr noundef nonnull align 8 dereferenceable(72) %8) #10
  br label %26

26:                                               ; preds = %22, %18
  call void @_ZN4ncnn3MatD2Ev(ptr noundef nonnull align 8 dereferenceable(72) %6) #10
  br label %27

27:                                               ; preds = %26, %14
  call void @_ZN4ncnn5LayerD2Ev(ptr noundef nonnull align 8 dereferenceable(208) %5) #10
  br label %28

28:                                               ; preds = %27
  %29 = load ptr, ptr %3, align 8
  %30 = load i32, ptr %4, align 4
  %31 = insertvalue { ptr, i32 } poison, ptr %29, 0
  %32 = insertvalue { ptr, i32 } %31, i32 %30, 1
  resume { ptr, i32 } %32
}