; Function Attrs: mustprogress uwtable
define hidden void @_ZN4ncnn15Deconvolution3DC2Ev(ptr noundef nonnull align 8 dereferenceable(528) %0) unnamed_addr #1 align 2 personality ptr @__gxx_personality_v0 {
  tail call void @_ZN4ncnn5LayerC2Ev(ptr noundef nonnull align 8 dereferenceable(208) %0)
  store ptr getelementptr inbounds nuw inrange(-16, 80) (i8, ptr @_ZTVN4ncnn15Deconvolution3DE, i64 16), ptr %0, align 8, !tbaa !4
  %2 = getelementptr inbounds nuw i8, ptr %0, i64 312
  %3 = getelementptr inbounds nuw i8, ptr %0, i64 344
  %4 = getelementptr inbounds nuw i8, ptr %0, i64 376
  %5 = getelementptr inbounds nuw i8, ptr %0, i64 416
  %6 = getelementptr inbounds nuw i8, ptr %0, i64 448
  %7 = getelementptr inbounds nuw i8, ptr %0, i64 488
  %8 = getelementptr inbounds nuw i8, ptr %0, i64 520
  store i64 0, ptr %8, align 8, !tbaa !17
  %9 = getelementptr inbounds nuw i8, ptr %0, i64 8
  tail call void @llvm.memset.p0.i64(ptr noundef nonnull align 8 dereferenceable(28) %2, i8 0, i64 28, i1 false)
  tail call void @llvm.memset.p0.i64(ptr noundef nonnull align 8 dereferenceable(28) %3, i8 0, i64 28, i1 false)
  tail call void @llvm.memset.p0.i64(ptr noundef nonnull align 8 dereferenceable(36) %4, i8 0, i64 36, i1 false)
  tail call void @llvm.memset.p0.i64(ptr noundef nonnull align 8 dereferenceable(28) %5, i8 0, i64 28, i1 false)
  tail call void @llvm.memset.p0.i64(ptr noundef nonnull align 8 dereferenceable(36) %6, i8 0, i64 36, i1 false)
  tail call void @llvm.memset.p0.i64(ptr noundef nonnull align 8 dereferenceable(28) %7, i8 0, i64 28, i1 false)
  store i8 1, ptr %9, align 8, !tbaa !74
  %10 = getelementptr inbounds nuw i8, ptr %0, i64 9
  store i8 0, ptr %10, align 1, !tbaa !75
  ret void
}